target datalayout = "e-m:e-p270:32:32-p271:32:32-p272:64:64-i64:64-i128:128-f80:128-n8:16:32:64-S128"
target triple = "x86_64-pc-linux-gnu"

%"class.cv::Range" = type { i32, i32 }
%"class.cv::Mat" = type { i32, i32, i32, i32, ptr, ptr, ptr, ptr, ptr, ptr, %"struct.cv::MatSize", %"struct.cv::MatStep" }
%"struct.cv::MatSize" = type { ptr }
%"struct.cv::MatStep" = type { ptr, [2 x i64] }
%class.anon.2 = type { ptr, ptr, ptr, ptr, ptr, ptr, ptr, ptr }

; Function Attrs: inlinehint mustprogress nounwind uwtable
define linkonce_odr noundef float @_ZSt4sqrtf(float noundef %0) #9 comdat {
  %2 = alloca float, align 4
  store float %0, ptr %2, align 4, !tbaa !8
  %3 = load float, ptr %2, align 4, !tbaa !8
  %4 = call float @sqrtf(float noundef %3) #3, !tbaa !37
  ret float %4
}

; Function Attrs: inlinehint mustprogress nounwind uwtable
define linkonce_odr noundef nonnull align 4 dereferenceable(4) ptr @_ZSt3maxIfERKT_S2_S2_(ptr noundef nonnull align 4 dereferenceable(4) %0, ptr noundef nonnull align 4 dereferenceable(4) %1) #9 comdat {
  %3 = alloca ptr, align 8
  %4 = alloca ptr, align 8
  %5 = alloca ptr, align 8
  store ptr %0, ptr %4, align 8, !tbaa !16
  store ptr %1, ptr %5, align 8, !tbaa !16
  %6 = load ptr, ptr %4, align 8, !tbaa !16
  %7 = load float, ptr %6, align 4, !tbaa !8
  %8 = load ptr, ptr %5, align 8, !tbaa !16
  %9 = load float, ptr %8, align 4, !tbaa !8
  %10 = fcmp olt float %7, %9
  br i1 %10, label %11, label %13

11:                                               ; preds = %2
  %12 = load ptr, ptr %5, align 8, !tbaa !16
  store ptr %12, ptr %3, align 8
  br label %15

13:                                               ; preds = %2
  %14 = load ptr, ptr %4, align 8, !tbaa !16
  store ptr %14, ptr %3, align 8
  br label %15

15:                                               ; preds = %13, %11
  %16 = load ptr, ptr %3, align 8
  ret ptr %16
}

; Function Attrs: inlinehint mustprogress nounwind uwtable
define linkonce_odr hidden noundef ptr @_ZN2cv3Mat3ptrIfEEPT_i(ptr noundef nonnull align 8 dereferenceable(96) %0, i32 noundef %1) #9 comdat align 2 {
  %3 = alloca ptr, align 8
  %4 = alloca i32, align 4
  store ptr %0, ptr %3, align 8, !tbaa !3
  store i32 %1, ptr %4, align 4, !tbaa !37
  %5 = load ptr, ptr %3, align 8
  %6 = getelementptr inbounds nuw %"class.cv::Mat", ptr %5, i32 0, i32 4
  %7 = load ptr, ptr %6, align 8, !tbaa !99
  %8 = getelementptr inbounds nuw %"class.cv::Mat", ptr %5, i32 0, i32 11
  %9 = getelementptr inbounds nuw %"struct.cv::MatStep", ptr %8, i32 0, i32 0
  %10 = load ptr, ptr %9, align 8, !tbaa !100
  %11 = getelementptr inbounds i64, ptr %10, i64 0
  %12 = load i64, ptr %11, align 8, !tbaa !10
  %13 = load i32, ptr %4, align 4, !tbaa !37
  %14 = sext i32 %13 to i64
  %15 = mul i64 %12, %14
  %16 = getelementptr inbounds nuw i8, ptr %7, i64 %15
  ret ptr %16
}

; Function Attrs: inlinehint mustprogress nounwind uwtable
define linkonce_odr hidden noundef ptr @_ZNK2cv3Mat3ptrIKfEEPKT_i(ptr noundef nonnull align 8 dereferenceable(96) %0, i32 noundef %1) #9 comdat align 2 {
  %3 = alloca ptr, align 8
  %4 = alloca i32, align 4
  store ptr %0, ptr %3, align 8, !tbaa !3
  store i32 %1, ptr %4, align 4, !tbaa !37
  %5 = load ptr, ptr %3, align 8
  %6 = getelementptr inbounds nuw %"class.cv::Mat", ptr %5, i32 0, i32 4
  %7 = load ptr, ptr %6, align 8, !tbaa !99
  %8 = getelementptr inbounds nuw %"class.cv::Mat", ptr %5, i32 0, i32 11
  %9 = getelementptr inbounds nuw %"struct.cv::MatStep", ptr %8, i32 0, i32 0
  %10 = load ptr, ptr %9, align 8, !tbaa !100
  %11 = getelementptr inbounds i64, ptr %10, i64 0
  %12 = load i64, ptr %11, align 8, !tbaa !10
  %13 = load i32, ptr %4, align 4, !tbaa !37
  %14 = sext i32 %13 to i64
  %15 = mul i64 %12, %14
  %16 = getelementptr inbounds nuw i8, ptr %7, i64 %15
  ret ptr %16
}

; Function Attrs: inlinehint mustprogress nounwind uwtable
define internal void @"_ZZN2cv3dnn15fastNormChannelERKNS_3MatES3_S3_RS1_fENK3$_0clERKNS_5RangeE"(ptr noundef nonnull align 8 dereferenceable(64) %0, ptr noundef nonnull align 4 dereferenceable(8) %1) #9 align 2 {
  %3 = alloca ptr, align 8
  %4 = alloca ptr, align 8
  %5 = alloca ptr, align 8
  %6 = alloca ptr, align 8
  %7 = alloca ptr, align 8
  %8 = alloca ptr, align 8
  %9 = alloca i32, align 4
  %10 = alloca i32, align 4
  %11 = alloca ptr, align 8
  %12 = alloca ptr, align 8
  %13 = alloca float, align 4
  %14 = alloca float, align 4
  %15 = alloca i32, align 4
  %16 = alloca float, align 4
  %17 = alloca float, align 4
  %18 = alloca float, align 4
  %19 = alloca float, align 4
  %20 = alloca i64, align 8
  %21 = alloca float, align 4
  %22 = alloca float, align 4
  %23 = alloca i64, align 8
  store ptr %0, ptr %3, align 8, !tbaa !47
  store ptr %1, ptr %4, align 8, !tbaa !40
  %24 = load ptr, ptr %3, align 8
  call void @llvm.lifetime.start.p0(i64 8, ptr %5) #3
  %25 = getelementptr inbounds nuw %class.anon.2, ptr %24, i32 0, i32 0
  %26 = load ptr, ptr %25, align 8, !tbaa !125
  %27 = call noundef ptr @_ZNK2cv3Mat3ptrIKfEEPKT_i(ptr noundef nonnull align 8 dereferenceable(96) %26, i32 noundef 0)
  store ptr %27, ptr %5, align 8, !tbaa !16
  call void @llvm.lifetime.start.p0(i64 8, ptr %6) #3
  %28 = getelementptr inbounds nuw %class.anon.2, ptr %24, i32 0, i32 1
  %29 = load ptr, ptr %28, align 8, !tbaa !127
  %30 = call noundef ptr @_ZNK2cv3Mat3ptrIKfEEPKT_i(ptr noundef nonnull align 8 dereferenceable(96) %29, i32 noundef 0)
  store ptr %30, ptr %6, align 8, !tbaa !16
  call void @llvm.lifetime.start.p0(i64 8, ptr %7) #3
  %31 = getelementptr inbounds nuw %class.anon.2, ptr %24, i32 0, i32 2
  %32 = load ptr, ptr %31, align 8, !tbaa !128
  %33 = call noundef ptr @_ZNK2cv3Mat3ptrIKfEEPKT_i(ptr noundef nonnull align 8 dereferenceable(96) %32, i32 noundef 0)
  store ptr %33, ptr %7, align 8, !tbaa !16
  call void @llvm.lifetime.start.p0(i64 8, ptr %8) #3
  %34 = getelementptr inbounds nuw %class.anon.2, ptr %24, i32 0, i32 3
  %35 = load ptr, ptr %34, align 8, !tbaa !129
  %36 = call noundef ptr @_ZN2cv3Mat3ptrIfEEPT_i(ptr noundef nonnull align 8 dereferenceable(96) %35, i32 noundef 0)
  store ptr %36, ptr %8, align 8, !tbaa !16
  call void @llvm.lifetime.start.p0(i64 4, ptr %9) #3
  %37 = load ptr, ptr %4, align 8, !tbaa !40
  %38 = getelementptr inbounds nuw %"class.cv::Range", ptr %37, i32 0, i32 0
  %39 = load i32, ptr %38, align 4, !tbaa !44
  store i32 %39, ptr %9, align 4, !tbaa !37
  br label %40

40:                                               ; preds = %152, %2
  %41 = load i32, ptr %9, align 4, !tbaa !37
  %42 = load ptr, ptr %4, align 8, !tbaa !40
  %43 = getelementptr inbounds nuw %"class.cv::Range", ptr %42, i32 0, i32 1
  %44 = load i32, ptr %43, align 4, !tbaa !46
  %45 = icmp slt i32 %41, %44
  br i1 %45, label %47, label %46

46:                                               ; preds = %40
  store i32 2, ptr %10, align 4
  call void @llvm.lifetime.end.p0(i64 4, ptr %9) #3
  br label %155

47:                                               ; preds = %40
  call void @llvm.lifetime.start.p0(i64 8, ptr %11) #3
  %48 = load ptr, ptr %5, align 8, !tbaa !16
  %49 = getelementptr inbounds nuw %class.anon.2, ptr %24, i32 0, i32 4
  %50 = load ptr, ptr %49, align 8, !tbaa !130
  %51 = load i64, ptr %50, align 8, !tbaa !10
  %52 = load i32, ptr %9, align 4, !tbaa !37
  %53 = sext i32 %52 to i64
  %54 = mul i64 %51, %53
  %55 = getelementptr inbounds nuw float, ptr %48, i64 %54
  store ptr %55, ptr %11, align 8, !tbaa !16
  call void @llvm.lifetime.start.p0(i64 8, ptr %12) #3
  %56 = load ptr, ptr %8, align 8, !tbaa !16
  %57 = getelementptr inbounds nuw %class.anon.2, ptr %24, i32 0, i32 4
  %58 = load ptr, ptr %57, align 8, !tbaa !130
  %59 = load i64, ptr %58, align 8, !tbaa !10
  %60 = load i32, ptr %9, align 4, !tbaa !37
  %61 = sext i32 %60 to i64
  %62 = mul i64 %59, %61
  %63 = getelementptr inbounds nuw float, ptr %56, i64 %62
  store ptr %63, ptr %12, align 8, !tbaa !16
  call void @llvm.lifetime.start.p0(i64 4, ptr %13) #3
  store float 0.000000e+00, ptr %13, align 4, !tbaa !8
  call void @llvm.lifetime.start.p0(i64 4, ptr %14) #3
  store float 0.000000e+00, ptr %14, align 4, !tbaa !8
  call void @llvm.lifetime.start.p0(i64 4, ptr %15) #3
  store i32 0, ptr %15, align 4, !tbaa !37
  br label %64

64:                                               ; preds = %85, %47
  %65 = load i32, ptr %15, align 4, !tbaa !37
  %66 = sext i32 %65 to i64
  %67 = getelementptr inbounds nuw %class.anon.2, ptr %24, i32 0, i32 4
  %68 = load ptr, ptr %67, align 8, !tbaa !130
  %69 = load i64, ptr %68, align 8, !tbaa !10
  %70 = icmp ult i64 %66, %69
  br i1 %70, label %72, label %71

71:                                               ; preds = %64
  store i32 5, ptr %10, align 4
  call void @llvm.lifetime.end.p0(i64 4, ptr %15) #3
  br label %88

72:                                               ; preds = %64
  call void @llvm.lifetime.start.p0(i64 4, ptr %16) #3
  %73 = load ptr, ptr %11, align 8, !tbaa !16
  %74 = load i32, ptr %15, align 4, !tbaa !37
  %75 = sext i32 %74 to i64
  %76 = getelementptr inbounds float, ptr %73, i64 %75
  %77 = load float, ptr %76, align 4, !tbaa !8
  store float %77, ptr %16, align 4, !tbaa !8
  %78 = load float, ptr %16, align 4, !tbaa !8
  %79 = load float, ptr %13, align 4, !tbaa !8
  %80 = fadd float %79, %78
  store float %80, ptr %13, align 4, !tbaa !8
  %81 = load float, ptr %16, align 4, !tbaa !8
  %82 = load float, ptr %16, align 4, !tbaa !8
  %83 = load float, ptr %14, align 4, !tbaa !8
  %84 = call float @llvm.fmuladd.f32(float %81, float %82, float %83)
  store float %84, ptr %14, align 4, !tbaa !8
  call void @llvm.lifetime.end.p0(i64 4, ptr %16) #3
  br label %85

85:                                               ; preds = %72
  %86 = load i32, ptr %15, align 4, !tbaa !37
  %87 = add nsw i32 %86, 1
  store i32 %87, ptr %15, align 4, !tbaa !37
  br label %64, !llvm.loop !131

88:                                               ; preds = %71
  %89 = getelementptr inbounds nuw %class.anon.2, ptr %24, i32 0, i32 5
  %90 = load ptr, ptr %89, align 8, !tbaa !132
  %91 = load float, ptr %90, align 4, !tbaa !8
  %92 = load float, ptr %13, align 4, !tbaa !8
  %93 = fmul float %92, %91
  store float %93, ptr %13, align 4, !tbaa !8
  call void @llvm.lifetime.start.p0(i64 4, ptr %17) #3
  store float 0.000000e+00, ptr %17, align 4, !tbaa !8
  call void @llvm.lifetime.start.p0(i64 4, ptr %18) #3
  %94 = load float, ptr %14, align 4, !tbaa !8
  %95 = getelementptr inbounds nuw %class.anon.2, ptr %24, i32 0, i32 5
  %96 = load ptr, ptr %95, align 8, !tbaa !132
  %97 = load float, ptr %96, align 4, !tbaa !8
  %98 = load float, ptr %13, align 4, !tbaa !8
  %99 = load float, ptr %13, align 4, !tbaa !8
  %100 = fmul float %98, %99
  %101 = fneg float %100
  %102 = call float @llvm.fmuladd.f32(float %94, float %97, float %101)
  store float %102, ptr %18, align 4, !tbaa !8
  %103 = call noundef nonnull align 4 dereferenceable(4) ptr @_ZSt3maxIfERKT_S2_S2_(ptr noundef nonnull align 4 dereferenceable(4) %17, ptr noundef nonnull align 4 dereferenceable(4) %18)
  %104 = load float, ptr %103, align 4, !tbaa !8
  %105 = getelementptr inbounds nuw %class.anon.2, ptr %24, i32 0, i32 6
  %106 = load ptr, ptr %105, align 8, !tbaa !133
  %107 = load float, ptr %106, align 4, !tbaa !8
  %108 = fadd float %104, %107
  %109 = call noundef float @_ZSt4sqrtf(float noundef %108)
  store float %109, ptr %14, align 4, !tbaa !8
  call void @llvm.lifetime.end.p0(i64 4, ptr %18) #3
  call void @llvm.lifetime.end.p0(i64 4, ptr %17) #3
  call void @llvm.lifetime.start.p0(i64 4, ptr %19) #3
  %110 = load float, ptr %14, align 4, !tbaa !8
  %111 = fdiv float 1.000000e+00, %110
  store float %111, ptr %19, align 4, !tbaa !8
  call void @llvm.lifetime.start.p0(i64 8, ptr %20) #3
  %112 = load i32, ptr %9, align 4, !tbaa !37
  %113 = sext i32 %112 to i64
  %114 = getelementptr inbounds nuw %class.anon.2, ptr %24, i32 0, i32 7
  %115 = load ptr, ptr %114, align 8, !tbaa !134
  %116 = load i64, ptr %115, align 8, !tbaa !10
  %117 = urem i64 %113, %116
  store i64 %117, ptr %20, align 8, !tbaa !10
  call void @llvm.lifetime.start.p0(i64 4, ptr %21) #3
  %118 = load ptr, ptr %6, align 8, !tbaa !16
  %119 = load i64, ptr %20, align 8, !tbaa !10
  %120 = getelementptr inbounds nuw float, ptr %118, i64 %119
  %121 = load float, ptr %120, align 4, !tbaa !8
  %122 = load float, ptr %19, align 4, !tbaa !8
  %123 = fmul float %121, %122
  store float %123, ptr %21, align 4, !tbaa !8
  call void @llvm.lifetime.start.p0(i64 4, ptr %22) #3
  %124 = load ptr, ptr %7, align 8, !tbaa !16
  %125 = load i64, ptr %20, align 8, !tbaa !10
  %126 = getelementptr inbounds nuw float, ptr %124, i64 %125
  %127 = load float, ptr %126, align 4, !tbaa !8
  store float %127, ptr %22, align 4, !tbaa !8
  call void @llvm.lifetime.start.p0(i64 8, ptr %23) #3
  store i64 0, ptr %23, align 8, !tbaa !10
  br label %128

128:                                              ; preds = %148, %88
  %129 = load i64, ptr %23, align 8, !tbaa !10
  %130 = getelementptr inbounds nuw %class.anon.2, ptr %24, i32 0, i32 4
  %131 = load ptr, ptr %130, align 8, !tbaa !130
  %132 = load i64, ptr %131, align 8, !tbaa !10
  %133 = icmp ult i64 %129, %132
  br i1 %133, label %135, label %134

134:                                              ; preds = %128
  store i32 8, ptr %10, align 4
  call void @llvm.lifetime.end.p0(i64 8, ptr %23) #3
  br label %151

135:                                              ; preds = %128
  %136 = load float, ptr %21, align 4, !tbaa !8
  %137 = load ptr, ptr %11, align 8, !tbaa !16
  %138 = load i64, ptr %23, align 8, !tbaa !10
  %139 = getelementptr inbounds nuw float, ptr %137, i64 %138
  %140 = load float, ptr %139, align 4, !tbaa !8
  %141 = load float, ptr %13, align 4, !tbaa !8
  %142 = fsub float %140, %141
  %143 = load float, ptr %22, align 4, !tbaa !8
  %144 = call float @llvm.fmuladd.f32(float %136, float %142, float %143)
  %145 = load ptr, ptr %12, align 8, !tbaa !16
  %146 = load i64, ptr %23, align 8, !tbaa !10
  %147 = getelementptr inbounds nuw float, ptr %145, i64 %146
  store float %144, ptr %147, align 4, !tbaa !8
  br label %148

148:                                              ; preds = %135
  %149 = load i64, ptr %23, align 8, !tbaa !10
  %150 = add i64 %149, 1
  store i64 %150, ptr %23, align 8, !tbaa !10
  br label %128, !llvm.loop !135

151:                                              ; preds = %134
  call void @llvm.lifetime.end.p0(i64 4, ptr %22) #3
  call void @llvm.lifetime.end.p0(i64 4, ptr %21) #3
  call void @llvm.lifetime.end.p0(i64 8, ptr %20) #3
  call void @llvm.lifetime.end.p0(i64 4, ptr %19) #3
  call void @llvm.lifetime.end.p0(i64 4, ptr %14) #3
  call void @llvm.lifetime.end.p0(i64 4, ptr %13) #3
  call void @llvm.lifetime.end.p0(i64 8, ptr %12) #3
  call void @llvm.lifetime.end.p0(i64 8, ptr %11) #3
  br label %152

152:                                              ; preds = %151
  %153 = load i32, ptr %9, align 4, !tbaa !37
  %154 = add nsw i32 %153, 1
  store i32 %154, ptr %9, align 4, !tbaa !37
  br label %40, !llvm.loop !136

155:                                              ; preds = %46
  call void @llvm.lifetime.end.p0(i64 8, ptr %8) #3
  call void @llvm.lifetime.end.p0(i64 8, ptr %7) #3
  call void @llvm.lifetime.end.p0(i64 8, ptr %6) #3
  call void @llvm.lifetime.end.p0(i64 8, ptr %5) #3
  ret void
}

; Function Attrs: mustprogress nounwind uwtable
define linkonce_odr hidden noundef ptr @_ZNKSt9_Any_data9_M_accessEv(ptr noundef nonnull align 8 dereferenceable(16) %0) #7 comdat align 2 {
  %2 = alloca ptr, align 8
  store ptr %0, ptr %2, align 8, !tbaa !80
  %3 = load ptr, ptr %2, align 8
  %4 = getelementptr inbounds [16 x i8], ptr %3, i64 0, i64 0
  ret ptr %4
}

; Function Attrs: mustprogress uwtable
define internal void @"_ZSt13__invoke_implIvRZN2cv3dnn15fastNormChannelERKNS0_3MatES4_S4_RS2_fE3$_0JRKNS0_5RangeEEET_St14__invoke_otherOT0_DpOT1_"(ptr noundef nonnull align 8 dereferenceable(64) %0, ptr noundef nonnull align 4 dereferenceable(8) %1) #4 {
  %3 = alloca ptr, align 8
  %4 = alloca ptr, align 8
  store ptr %0, ptr %3, align 8, !tbaa !47
  store ptr %1, ptr %4, align 8, !tbaa !40
  %5 = load ptr, ptr %3, align 8, !tbaa !47
  %6 = load ptr, ptr %4, align 8, !tbaa !40
  call void @"_ZZN2cv3dnn15fastNormChannelERKNS_3MatES3_S3_RS1_fENK3$_0clERKNS_5RangeE"(ptr noundef nonnull align 8 dereferenceable(64) %5, ptr noundef nonnull align 4 dereferenceable(8) %6)
  ret void
}

; Function Attrs: mustprogress nounwind uwtable
define internal noundef nonnull align 8 dereferenceable(8) ptr @"_ZNKSt9_Any_data9_M_accessIPZN2cv3dnn15fastNormChannelERKNS1_3MatES5_S5_RS3_fE3$_0EERKT_v"(ptr noundef nonnull align 8 dereferenceable(16) %0) #7 align 2 {
  %2 = alloca ptr, align 8
  store ptr %0, ptr %2, align 8, !tbaa !80
  %3 = load ptr, ptr %2, align 8
  %4 = call noundef ptr @_ZNKSt9_Any_data9_M_accessEv(ptr noundef nonnull align 8 dereferenceable(16) %3) #3
  ret ptr %4
}

; Function Attrs: mustprogress uwtable
define internal void @"_ZSt10__invoke_rIvRZN2cv3dnn15fastNormChannelERKNS0_3MatES4_S4_RS2_fE3$_0JRKNS0_5RangeEEENSt9enable_ifIXsr6__and_ISt7is_voidIT_ESt14__is_invocableIT0_JDpT1_EEEE5valueESD_E4typeEOSG_DpOSH_"(ptr noundef nonnull align 8 dereferenceable(64) %0, ptr noundef nonnull align 4 dereferenceable(8) %1) #4 {
  %3 = alloca ptr, align 8
  %4 = alloca ptr, align 8
  store ptr %0, ptr %3, align 8, !tbaa !47
  store ptr %1, ptr %4, align 8, !tbaa !40
  %5 = load ptr, ptr %3, align 8, !tbaa !47
  %6 = load ptr, ptr %4, align 8, !tbaa !40
  call void @"_ZSt13__invoke_implIvRZN2cv3dnn15fastNormChannelERKNS0_3MatES4_S4_RS2_fE3$_0JRKNS0_5RangeEEET_St14__invoke_otherOT0_DpOT1_"(ptr noundef nonnull align 8 dereferenceable(64) %5, ptr noundef nonnull align 4 dereferenceable(8) %6)
  ret void
}

; Function Attrs: mustprogress nounwind uwtable
define internal noundef ptr @"_ZNSt14_Function_base13_Base_managerIZN2cv3dnn15fastNormChannelERKNS1_3MatES5_S5_RS3_fE3$_0E14_M_get_pointerERKSt9_Any_data"(ptr noundef nonnull align 8 dereferenceable(16) %0) #7 align 2 {
  %2 = alloca ptr, align 8
  store ptr %0, ptr %2, align 8, !tbaa !80
  %3 = load ptr, ptr %2, align 8, !tbaa !80
  %4 = call noundef nonnull align 8 dereferenceable(8) ptr @"_ZNKSt9_Any_data9_M_accessIPZN2cv3dnn15fastNormChannelERKNS1_3MatES5_S5_RS3_fE3$_0EERKT_v"(ptr noundef nonnull align 8 dereferenceable(16) %3) #3
  %5 = load ptr, ptr %4, align 8, !tbaa !47
  ret ptr %5
}

; Function Attrs: mustprogress uwtable
define internal void @"_ZNSt17_Function_handlerIFvRKN2cv5RangeEEZNS0_3dnn15fastNormChannelERKNS0_3MatES8_S8_RS6_fE3$_0E9_M_invokeERKSt9_Any_dataS3_"(ptr noundef nonnull align 8 dereferenceable(16) %0, ptr noundef nonnull align 4 dereferenceable(8) %1) #4 align 2 {
  %3 = alloca ptr, align 8
  %4 = alloca ptr, align 8
  store ptr %0, ptr %3, align 8, !tbaa !80
  store ptr %1, ptr %4, align 8, !tbaa !40
  %5 = load ptr, ptr %3, align 8, !tbaa !80
  %6 = call noundef ptr @"_ZNSt14_Function_base13_Base_managerIZN2cv3dnn15fastNormChannelERKNS1_3MatES5_S5_RS3_fE3$_0E14_M_get_pointerERKSt9_Any_data"(ptr noundef nonnull align 8 dereferenceable(16) %5) #3
  %7 = load ptr, ptr %4, align 8, !tbaa !40
  call void @"_ZSt10__invoke_rIvRZN2cv3dnn15fastNormChannelERKNS0_3MatES4_S4_RS2_fE3$_0JRKNS0_5RangeEEENSt9enable_ifIXsr6__and_ISt7is_voidIT_ESt14__is_invocableIT0_JDpT1_EEEE5valueESD_E4typeEOSG_DpOSH_"(ptr noundef nonnull align 8 dereferenceable(64) %6, ptr noundef nonnull align 4 dereferenceable(8) %7)
  ret void
}