; Function Attrs: mustprogress nofree nounwind memory(readwrite, inaccessiblemem: write) uwtable
define internal void @"_ZNSt17_Function_handlerIFvRKN2cv5RangeEEZNS0_3dnn15fastNormChannelERKNS0_3MatES8_S8_RS6_fE3$_0E9_M_invokeERKSt9_Any_dataS3_"(ptr noundef nonnull readonly align 8 captures(none) dereferenceable(16) %0, ptr noundef nonnull readonly align 4 captures(none) dereferenceable(8) %1) #13 align 2 {
  %.val = load ptr, ptr %0, align 8, !tbaa !36
  %3 = load ptr, ptr %.val, align 8, !tbaa !83
  %4 = getelementptr inbounds nuw i8, ptr %3, i64 16
  %5 = load ptr, ptr %4, align 8, !tbaa !45
  %6 = getelementptr inbounds nuw i8, ptr %.val, i64 8
  %7 = load ptr, ptr %6, align 8, !tbaa !85
  %8 = getelementptr inbounds nuw i8, ptr %7, i64 16
  %9 = load ptr, ptr %8, align 8, !tbaa !45
  %10 = getelementptr inbounds nuw i8, ptr %.val, i64 16
  %11 = load ptr, ptr %10, align 8, !tbaa !86
  %12 = getelementptr inbounds nuw i8, ptr %11, i64 16
  %13 = load ptr, ptr %12, align 8, !tbaa !45
  %14 = getelementptr inbounds nuw i8, ptr %.val, i64 24
  %15 = load ptr, ptr %14, align 8, !tbaa !87
  %16 = getelementptr inbounds nuw i8, ptr %15, i64 16
  %17 = load ptr, ptr %16, align 8, !tbaa !45
  %18 = load i32, ptr %1, align 4, !tbaa !26
  %19 = getelementptr inbounds nuw i8, ptr %1, i64 4
  %20 = load i32, ptr %19, align 4, !tbaa !28
  %21 = icmp slt i32 %18, %20
  br i1 %21, label %.lr.ph52.i.i.i, label %"_ZSt10__invoke_rIvRZN2cv3dnn15fastNormChannelERKNS0_3MatES4_S4_RS2_fE3$_0JRKNS0_5RangeEEENSt9enable_ifIXsr6__and_ISt7is_voidIT_ESt14__is_invocableIT0_JDpT1_EEEE5valueESD_E4typeEOSG_DpOSH_.exit"

.lr.ph52.i.i.i:                                   ; preds = %2
  %22 = getelementptr inbounds nuw i8, ptr %.val, i64 32
  %23 = load ptr, ptr %22, align 8, !tbaa !88
  %24 = load i64, ptr %23, align 8, !tbaa !24
  %25 = getelementptr inbounds nuw i8, ptr %.val, i64 40
  %26 = load ptr, ptr %25, align 8, !tbaa !89
  %27 = getelementptr inbounds nuw i8, ptr %.val, i64 48
  %28 = load ptr, ptr %27, align 8, !tbaa !90
  %29 = getelementptr inbounds nuw i8, ptr %.val, i64 56
  %30 = load ptr, ptr %29, align 8, !tbaa !91
  %31 = load i64, ptr %30, align 8, !tbaa !24
  %.not.i.i.i = icmp eq i64 %24, 0
  br i1 %.not.i.i.i, label %.lr.ph52.split.split.preheader.i.i.i, label %.lr.ph.us.us.preheader.i.i.i

.lr.ph.us.us.preheader.i.i.i:                     ; preds = %.lr.ph52.i.i.i
  %32 = sext i32 %18 to i64
  br label %.lr.ph.us.us.i.i.i

.lr.ph52.split.split.preheader.i.i.i:             ; preds = %.lr.ph52.i.i.i
  %.pre.i.i.i = load float, ptr %26, align 4, !tbaa !3
  %.pre72.i.i.i = load float, ptr %28, align 4, !tbaa !3
  %33 = fmul float %.pre.i.i.i, 0.000000e+00
  %34 = fneg float %33
  %35 = fmul float %33, %34
  %36 = tail call float @llvm.fmuladd.f32(float %.pre.i.i.i, float 0.000000e+00, float %35)
  %37 = fcmp ogt float %36, 0.000000e+00
  %.sroa.speculated.i.i.i = select i1 %37, float %36, float 0.000000e+00
  %38 = fadd float %.pre72.i.i.i, %.sroa.speculated.i.i.i
  %39 = fcmp olt float %38, 0.000000e+00
  br i1 %39, label %.lr.ph52.split.split.i.us.i.us.i.us, label %"_ZSt10__invoke_rIvRZN2cv3dnn15fastNormChannelERKNS0_3MatES4_S4_RS2_fE3$_0JRKNS0_5RangeEEENSt9enable_ifIXsr6__and_ISt7is_voidIT_ESt14__is_invocableIT0_JDpT1_EEEE5valueESD_E4typeEOSG_DpOSH_.exit", !prof !56

.lr.ph52.split.split.i.us.i.us.i.us:              ; preds = %.lr.ph52.split.split.preheader.i.i.i, %.lr.ph52.split.split.i.us.i.us.i.us
  %.03750.i.us.i.us.i.us = phi i32 [ %41, %.lr.ph52.split.split.i.us.i.us.i.us ], [ %18, %.lr.ph52.split.split.preheader.i.i.i ]
  %40 = tail call noundef float @sqrtf(float noundef %38) #21, !tbaa !21
  %41 = add nsw i32 %.03750.i.us.i.us.i.us, 1
  %42 = load i32, ptr %19, align 4, !tbaa !28
  %43 = icmp slt i32 %41, %42
  br i1 %43, label %.lr.ph52.split.split.i.us.i.us.i.us, label %"_ZSt10__invoke_rIvRZN2cv3dnn15fastNormChannelERKNS0_3MatES4_S4_RS2_fE3$_0JRKNS0_5RangeEEENSt9enable_ifIXsr6__and_ISt7is_voidIT_ESt14__is_invocableIT0_JDpT1_EEEE5valueESD_E4typeEOSG_DpOSH_.exit", !llvm.loop !92

.lr.ph.us.us.i.i.i:                               ; preds = %._crit_edge49.us.us.i.i.i, %.lr.ph.us.us.preheader.i.i.i
  %indvars.iv69.i.i.i = phi i64 [ %32, %.lr.ph.us.us.preheader.i.i.i ], [ %indvars.iv.next70.i.i.i, %._crit_edge49.us.us.i.i.i ]
  %44 = mul i64 %indvars.iv69.i.i.i, %24
  %45 = getelementptr inbounds nuw float, ptr %5, i64 %44
  br label %53

46:                                               ; preds = %._crit_edge.us.us.i.i.i, %46
  %.046.us.us.i.i.i = phi i64 [ 0, %._crit_edge.us.us.i.i.i ], [ %52, %46 ]
  %47 = getelementptr inbounds nuw float, ptr %45, i64 %.046.us.us.i.i.i
  %48 = load float, ptr %47, align 4, !tbaa !3
  %49 = fsub float %48, %60
  %50 = tail call float @llvm.fmuladd.f32(float %72, float %49, float %74)
  %51 = getelementptr inbounds nuw float, ptr %58, i64 %.046.us.us.i.i.i
  store float %50, ptr %51, align 4, !tbaa !3
  %52 = add nuw i64 %.046.us.us.i.i.i, 1
  %exitcond68.not.i.i.i = icmp eq i64 %52, %24
  br i1 %exitcond68.not.i.i.i, label %._crit_edge49.us.us.i.i.i, label %46, !llvm.loop !93

53:                                               ; preds = %53, %.lr.ph.us.us.i.i.i
  %indvars.iv.i.i.i = phi i64 [ 0, %.lr.ph.us.us.i.i.i ], [ %indvars.iv.next.i.i.i, %53 ]
  %.03844.us.us.i.i.i = phi float [ 0.000000e+00, %.lr.ph.us.us.i.i.i ], [ %56, %53 ]
  %.03943.us.us.i.i.i = phi float [ 0.000000e+00, %.lr.ph.us.us.i.i.i ], [ %57, %53 ]
  %54 = getelementptr inbounds nuw float, ptr %45, i64 %indvars.iv.i.i.i
  %55 = load float, ptr %54, align 4, !tbaa !3
  %56 = fadd float %.03844.us.us.i.i.i, %55
  %57 = tail call float @llvm.fmuladd.f32(float %55, float %55, float %.03943.us.us.i.i.i)
  %indvars.iv.next.i.i.i = add nuw nsw i64 %indvars.iv.i.i.i, 1
  %exitcond.not.i.i.i = icmp eq i64 %indvars.iv.next.i.i.i, %24
  br i1 %exitcond.not.i.i.i, label %._crit_edge.us.us.i.i.i, label %53, !llvm.loop !94

._crit_edge.us.us.i.i.i:                          ; preds = %53
  %58 = getelementptr inbounds nuw float, ptr %17, i64 %44
  %59 = load float, ptr %26, align 4, !tbaa !3
  %60 = fmul float %56, %59
  %61 = fneg float %60
  %62 = fmul float %60, %61
  %63 = tail call float @llvm.fmuladd.f32(float %57, float %59, float %62)
  %64 = fcmp ogt float %63, 0.000000e+00
  %.sroa.speculated.us.us.i.i.i = select i1 %64, float %63, float 0.000000e+00
  %65 = load float, ptr %28, align 4, !tbaa !3
  %66 = fadd float %65, %.sroa.speculated.us.us.i.i.i
  %67 = tail call noundef float @sqrtf(float noundef %66) #21, !tbaa !21
  %68 = fdiv float 1.000000e+00, %67
  %69 = urem i64 %indvars.iv69.i.i.i, %31
  %70 = getelementptr inbounds nuw float, ptr %9, i64 %69
  %71 = load float, ptr %70, align 4, !tbaa !3
  %72 = fmul float %68, %71
  %73 = getelementptr inbounds nuw float, ptr %13, i64 %69
  %74 = load float, ptr %73, align 4, !tbaa !3
  br label %46

._crit_edge49.us.us.i.i.i:                        ; preds = %46
  %indvars.iv.next70.i.i.i = add nsw i64 %indvars.iv69.i.i.i, 1
  %75 = load i32, ptr %19, align 4, !tbaa !28
  %76 = sext i32 %75 to i64
  %77 = icmp slt i64 %indvars.iv.next70.i.i.i, %76
  br i1 %77, label %.lr.ph.us.us.i.i.i, label %"_ZSt10__invoke_rIvRZN2cv3dnn15fastNormChannelERKNS0_3MatES4_S4_RS2_fE3$_0JRKNS0_5RangeEEENSt9enable_ifIXsr6__and_ISt7is_voidIT_ESt14__is_invocableIT0_JDpT1_EEEE5valueESD_E4typeEOSG_DpOSH_.exit", !llvm.loop !92

"_ZSt10__invoke_rIvRZN2cv3dnn15fastNormChannelERKNS0_3MatES4_S4_RS2_fE3$_0JRKNS0_5RangeEEENSt9enable_ifIXsr6__and_ISt7is_voidIT_ESt14__is_invocableIT0_JDpT1_EEEE5valueESD_E4typeEOSG_DpOSH_.exit": ; preds = %._crit_edge49.us.us.i.i.i, %.lr.ph52.split.split.i.us.i.us.i.us, %2, %.lr.ph52.split.split.preheader.i.i.i
  ret void
}